target datalayout = "e-m:e-p270:32:32-p271:32:32-p272:64:64-i64:64-i128:128-f80:128-n8:16:32:64-S128"
target triple = "x86_64-pc-linux-gnu"

%struct._object = type { %union.anon, ptr }
%union.anon = type { i64 }
%struct._typeobject = type { %struct.PyVarObject, ptr, i64, i64, ptr, i64, ptr, ptr, ptr, ptr, ptr, ptr, ptr, ptr, ptr, ptr, ptr, ptr, ptr, i64, ptr, ptr, ptr, ptr, i64, ptr, ptr, ptr, ptr, ptr, ptr, ptr, ptr, ptr, i64, ptr, ptr, ptr, ptr, ptr, ptr, ptr, ptr, ptr, ptr, ptr, i32, ptr, ptr, i8, i16 }
%struct.PyVarObject = type { %struct._object, i64 }
%struct.anon = type { i32, i32 }
%struct.PyTupleObject = type { %struct.PyVarObject, [1 x ptr] }
%struct.attrgetterobject = type { %struct._object, i64, ptr, ptr }

@PyTuple_Type = external global %struct._typeobject, align 8
@.str.68 = private unnamed_addr constant [2 x i8] c".\00", align 1

; Function Attrs: alwaysinline nounwind uwtable
define internal void @Py_INCREF(ptr noundef %0) #4 {
  %2 = alloca ptr, align 8
  %3 = alloca i32, align 4
  %4 = alloca i32, align 4
  store ptr %0, ptr %2, align 8, !tbaa !4
  call void @llvm.lifetime.start.p0(i64 4, ptr %3) #7
  %5 = load ptr, ptr %2, align 8, !tbaa !4
  %6 = getelementptr inbounds nuw %struct._object, ptr %5, i32 0, i32 0
  %7 = getelementptr inbounds nuw %struct.anon, ptr %6, i32 0, i32 0
  %8 = load i32, ptr %7, align 8, !tbaa !20
  store i32 %8, ptr %3, align 4, !tbaa !12
  %9 = load i32, ptr %3, align 4, !tbaa !12
  %10 = icmp slt i32 %9, 0
  br i1 %10, label %11, label %12

11:                                               ; preds = %1
  store i32 1, ptr %4, align 4
  br label %18

12:                                               ; preds = %1
  %13 = load i32, ptr %3, align 4, !tbaa !12
  %14 = add i32 %13, 1
  %15 = load ptr, ptr %2, align 8, !tbaa !4
  %16 = getelementptr inbounds nuw %struct._object, ptr %15, i32 0, i32 0
  %17 = getelementptr inbounds nuw %struct.anon, ptr %16, i32 0, i32 0
  store i32 %14, ptr %17, align 8, !tbaa !20
  store i32 0, ptr %4, align 4
  br label %18

18:                                               ; preds = %12, %11
  call void @llvm.lifetime.end.p0(i64 4, ptr %3) #7
  %19 = load i32, ptr %4, align 4
  switch i32 %19, label %21 [
    i32 0, label %20
    i32 1, label %20
  ]

20:                                               ; preds = %18, %18
  ret void

21:                                               ; preds = %18
  unreachable
}

; Function Attrs: inlinehint nounwind uwtable
define internal ptr @_Py_TYPE(ptr noundef %0) #3 {
  %2 = alloca ptr, align 8
  store ptr %0, ptr %2, align 8, !tbaa !4
  %3 = load ptr, ptr %2, align 8, !tbaa !4
  %4 = getelementptr inbounds nuw %struct._object, ptr %3, i32 0, i32 1
  %5 = load ptr, ptr %4, align 8, !tbaa !38
  ret ptr %5
}

; Function Attrs: alwaysinline nounwind uwtable
define internal i32 @_Py_IsImmortal(ptr noundef %0) #4 {
  %2 = alloca ptr, align 8
  store ptr %0, ptr %2, align 8, !tbaa !4
  %3 = load ptr, ptr %2, align 8, !tbaa !4
  %4 = getelementptr inbounds nuw %struct._object, ptr %3, i32 0, i32 0
  %5 = getelementptr inbounds nuw %struct.anon, ptr %4, i32 0, i32 0
  %6 = load i32, ptr %5, align 8, !tbaa !20
  %7 = icmp slt i32 %6, 0
  %8 = zext i1 %7 to i32
  ret i32 %8
}

; Function Attrs: inlinehint nounwind uwtable
define internal ptr @_Py_NewRef(ptr noundef %0) #3 {
  %2 = alloca ptr, align 8
  store ptr %0, ptr %2, align 8, !tbaa !4
  %3 = load ptr, ptr %2, align 8, !tbaa !4
  call void @Py_INCREF(ptr noundef %3)
  %4 = load ptr, ptr %2, align 8, !tbaa !4
  ret ptr %4
}

; Function Attrs: inlinehint nounwind uwtable
define internal i32 @Py_IS_TYPE(ptr noundef %0, ptr noundef %1) #3 {
  %3 = alloca ptr, align 8
  %4 = alloca ptr, align 8
  store ptr %0, ptr %3, align 8, !tbaa !4
  store ptr %1, ptr %4, align 8, !tbaa !36
  %5 = load ptr, ptr %3, align 8, !tbaa !4
  %6 = call ptr @_Py_TYPE(ptr noundef %5)
  %7 = load ptr, ptr %4, align 8, !tbaa !36
  %8 = icmp eq ptr %6, %7
  %9 = zext i1 %8 to i32
  ret i32 %9
}

; Function Attrs: inlinehint nounwind uwtable
define internal void @PyTuple_SET_ITEM(ptr noundef %0, i64 noundef %1, ptr noundef %2) #3 {
  %4 = alloca ptr, align 8
  %5 = alloca i64, align 8
  %6 = alloca ptr, align 8
  %7 = alloca ptr, align 8
  store ptr %0, ptr %4, align 8, !tbaa !4
  store i64 %1, ptr %5, align 8, !tbaa !18
  store ptr %2, ptr %6, align 8, !tbaa !4
  call void @llvm.lifetime.start.p0(i64 8, ptr %7) #7
  %8 = load ptr, ptr %4, align 8, !tbaa !4
  store ptr %8, ptr %7, align 8, !tbaa !9
  %9 = load ptr, ptr %6, align 8, !tbaa !4
  %10 = load ptr, ptr %7, align 8, !tbaa !9
  %11 = getelementptr inbounds nuw %struct.PyTupleObject, ptr %10, i32 0, i32 1
  %12 = load i64, ptr %5, align 8, !tbaa !18
  %13 = getelementptr [1 x ptr], ptr %11, i64 0, i64 %12
  store ptr %9, ptr %13, align 8, !tbaa !4
  call void @llvm.lifetime.end.p0(i64 8, ptr %7) #7
  ret void
}

; Function Attrs: alwaysinline nounwind uwtable
define internal void @Py_DECREF(ptr noundef %0) #4 {
  %2 = alloca ptr, align 8
  store ptr %0, ptr %2, align 8, !tbaa !4
  %3 = load ptr, ptr %2, align 8, !tbaa !4
  %4 = call i32 @_Py_IsImmortal(ptr noundef %3)
  %5 = icmp ne i32 %4, 0
  br i1 %5, label %6, label %7

6:                                                ; preds = %1
  br label %16

7:                                                ; preds = %1
  %8 = load ptr, ptr %2, align 8, !tbaa !4
  %9 = getelementptr inbounds nuw %struct._object, ptr %8, i32 0, i32 0
  %10 = getelementptr inbounds nuw %struct.anon, ptr %9, i32 0, i32 0
  %11 = load i32, ptr %10, align 8, !tbaa !20
  %12 = add i32 %11, -1
  store i32 %12, ptr %10, align 8, !tbaa !20
  %13 = icmp eq i32 %12, 0
  br i1 %13, label %14, label %16

14:                                               ; preds = %7
  %15 = load ptr, ptr %2, align 8, !tbaa !4
  call void @_Py_Dealloc(ptr noundef %15)
  br label %16

16:                                               ; preds = %6, %14, %7
  ret void
}

; Function Attrs: inlinehint nounwind uwtable
define internal void @Py_XDECREF(ptr noundef %0) #3 {
  %2 = alloca ptr, align 8
  store ptr %0, ptr %2, align 8, !tbaa !4
  %3 = load ptr, ptr %2, align 8, !tbaa !4
  %4 = icmp ne ptr %3, null
  br i1 %4, label %5, label %7

5:                                                ; preds = %1
  %6 = load ptr, ptr %2, align 8, !tbaa !4
  call void @Py_DECREF(ptr noundef %6)
  br label %7

7:                                                ; preds = %5, %1
  ret void
}

; Function Attrs: nounwind uwtable
define internal ptr @dotjoinattr(ptr noundef %0, ptr noundef %1) #0 {
  %3 = alloca ptr, align 8
  %4 = alloca ptr, align 8
  %5 = alloca ptr, align 8
  store ptr %0, ptr %4, align 8, !tbaa !4
  store ptr %1, ptr %5, align 8, !tbaa !16
  %6 = load ptr, ptr %4, align 8, !tbaa !4
  %7 = call i32 @Py_IS_TYPE(ptr noundef %6, ptr noundef @PyTuple_Type)
  %8 = icmp ne i32 %7, 0
  br i1 %8, label %9, label %26

9:                                                ; preds = %2
  %10 = load ptr, ptr %5, align 8, !tbaa !16
  %11 = load ptr, ptr %10, align 8, !tbaa !4
  %12 = icmp eq ptr %11, null
  br i1 %12, label %13, label %21

13:                                               ; preds = %9
  %14 = call ptr @PyUnicode_FromString(ptr noundef @.str.68)
  %15 = load ptr, ptr %5, align 8, !tbaa !16
  store ptr %14, ptr %15, align 8, !tbaa !4
  %16 = load ptr, ptr %5, align 8, !tbaa !16
  %17 = load ptr, ptr %16, align 8, !tbaa !4
  %18 = icmp eq ptr %17, null
  br i1 %18, label %19, label %20

19:                                               ; preds = %13
  store ptr null, ptr %3, align 8
  br label %29

20:                                               ; preds = %13
  br label %21

21:                                               ; preds = %20, %9
  %22 = load ptr, ptr %5, align 8, !tbaa !16
  %23 = load ptr, ptr %22, align 8, !tbaa !4
  %24 = load ptr, ptr %4, align 8, !tbaa !4
  %25 = call ptr @PyUnicode_Join(ptr noundef %23, ptr noundef %24)
  store ptr %25, ptr %3, align 8
  br label %29

26:                                               ; preds = %2
  %27 = load ptr, ptr %4, align 8, !tbaa !4
  %28 = call ptr @_Py_NewRef(ptr noundef %27)
  store ptr %28, ptr %3, align 8
  br label %29

29:                                               ; preds = %26, %21, %19
  %30 = load ptr, ptr %3, align 8
  ret ptr %30
}

; Function Attrs: nounwind uwtable
define internal ptr @attrgetter_args(ptr noundef %0) #0 {
  %2 = alloca ptr, align 8
  %3 = alloca ptr, align 8
  %4 = alloca i64, align 8
  %5 = alloca ptr, align 8
  %6 = alloca ptr, align 8
  %7 = alloca i32, align 4
  %8 = alloca ptr, align 8
  %9 = alloca ptr, align 8
  store ptr %0, ptr %3, align 8, !tbaa !9
  call void @llvm.lifetime.start.p0(i64 8, ptr %4) #7
  call void @llvm.lifetime.start.p0(i64 8, ptr %5) #7
  store ptr null, ptr %5, align 8, !tbaa !4
  call void @llvm.lifetime.start.p0(i64 8, ptr %6) #7
  %10 = load ptr, ptr %3, align 8, !tbaa !9
  %11 = getelementptr inbounds nuw %struct.attrgetterobject, ptr %10, i32 0, i32 1
  %12 = load i64, ptr %11, align 8, !tbaa !57
  %13 = call ptr @PyTuple_New(i64 noundef %12)
  store ptr %13, ptr %6, align 8, !tbaa !4
  %14 = load ptr, ptr %6, align 8, !tbaa !4
  %15 = icmp eq ptr %14, null
  br i1 %15, label %16, label %17

16:                                               ; preds = %1
  store ptr null, ptr %2, align 8
  store i32 1, ptr %7, align 4
  br label %52

17:                                               ; preds = %1
  store i64 0, ptr %4, align 8, !tbaa !18
  br label %18

18:                                               ; preds = %46, %17
  %19 = load i64, ptr %4, align 8, !tbaa !18
  %20 = load ptr, ptr %3, align 8, !tbaa !9
  %21 = getelementptr inbounds nuw %struct.attrgetterobject, ptr %20, i32 0, i32 1
  %22 = load i64, ptr %21, align 8, !tbaa !57
  %23 = icmp slt i64 %19, %22
  br i1 %23, label %24, label %49

24:                                               ; preds = %18
  call void @llvm.lifetime.start.p0(i64 8, ptr %8) #7
  %25 = load ptr, ptr %3, align 8, !tbaa !9
  %26 = getelementptr inbounds nuw %struct.attrgetterobject, ptr %25, i32 0, i32 2
  %27 = load ptr, ptr %26, align 8, !tbaa !49
  %28 = getelementptr inbounds nuw %struct.PyTupleObject, ptr %27, i32 0, i32 1
  %29 = load i64, ptr %4, align 8, !tbaa !18
  %30 = getelementptr [1 x ptr], ptr %28, i64 0, i64 %29
  %31 = load ptr, ptr %30, align 8, !tbaa !4
  store ptr %31, ptr %8, align 8, !tbaa !4
  call void @llvm.lifetime.start.p0(i64 8, ptr %9) #7
  %32 = load ptr, ptr %8, align 8, !tbaa !4
  %33 = call ptr @dotjoinattr(ptr noundef %32, ptr noundef %5)
  store ptr %33, ptr %9, align 8, !tbaa !4
  %34 = load ptr, ptr %9, align 8, !tbaa !4
  %35 = icmp eq ptr %34, null
  br i1 %35, label %36, label %39

36:                                               ; preds = %24
  %37 = load ptr, ptr %5, align 8, !tbaa !4
  call void @Py_XDECREF(ptr noundef %37)
  %38 = load ptr, ptr %6, align 8, !tbaa !4
  call void @Py_DECREF(ptr noundef %38)
  store ptr null, ptr %2, align 8
  store i32 1, ptr %7, align 4
  br label %43

39:                                               ; preds = %24
  %40 = load ptr, ptr %6, align 8, !tbaa !4
  %41 = load i64, ptr %4, align 8, !tbaa !18
  %42 = load ptr, ptr %9, align 8, !tbaa !4
  call void @PyTuple_SET_ITEM(ptr noundef %40, i64 noundef %41, ptr noundef %42)
  store i32 0, ptr %7, align 4
  br label %43

43:                                               ; preds = %39, %36
  call void @llvm.lifetime.end.p0(i64 8, ptr %9) #7
  call void @llvm.lifetime.end.p0(i64 8, ptr %8) #7
  %44 = load i32, ptr %7, align 4
  switch i32 %44, label %52 [
    i32 0, label %45
  ]

45:                                               ; preds = %43
  br label %46

46:                                               ; preds = %45
  %47 = load i64, ptr %4, align 8, !tbaa !18
  %48 = add i64 %47, 1
  store i64 %48, ptr %4, align 8, !tbaa !18
  br label %18, !llvm.loop !62

49:                                               ; preds = %18
  %50 = load ptr, ptr %5, align 8, !tbaa !4
  call void @Py_XDECREF(ptr noundef %50)
  %51 = load ptr, ptr %6, align 8, !tbaa !4
  store ptr %51, ptr %2, align 8
  store i32 1, ptr %7, align 4
  br label %52

52:                                               ; preds = %49, %43, %16
  call void @llvm.lifetime.end.p0(i64 8, ptr %6) #7
  call void @llvm.lifetime.end.p0(i64 8, ptr %5) #7
  call void @llvm.lifetime.end.p0(i64 8, ptr %4) #7
  %53 = load ptr, ptr %2, align 8
  ret ptr %53
}