; Function Attrs: nounwind uwtable
define internal fastcc ptr @attrgetter_args(ptr noundef readonly captures(none) %0) unnamed_addr #0 {
  %2 = getelementptr inbounds nuw i8, ptr %0, i64 16
  %3 = load i64, ptr %2, align 8, !tbaa !72
  %4 = tail call ptr @PyTuple_New(i64 noundef %3) #7
  %5 = icmp eq ptr %4, null
  br i1 %5, label %Py_XDECREF.exit23, label %.preheader

.preheader:                                       ; preds = %1
  %6 = load i64, ptr %2, align 8, !tbaa !72
  %7 = icmp sgt i64 %6, 0
  br i1 %7, label %.lr.ph, label %Py_XDECREF.exit23

.lr.ph:                                           ; preds = %.preheader
  %8 = getelementptr inbounds nuw i8, ptr %0, i64 24
  %9 = getelementptr inbounds nuw i8, ptr %4, i64 24
  br label %10

10:                                               ; preds = %.lr.ph, %Py_DECREF.exit.thread48
  %.01556 = phi i64 [ 0, %.lr.ph ], [ %38, %Py_DECREF.exit.thread48 ]
  %.02655 = phi ptr [ null, %.lr.ph ], [ %.23152, %Py_DECREF.exit.thread48 ]
  %11 = load ptr, ptr %8, align 8, !tbaa !44
  %12 = getelementptr inbounds nuw i8, ptr %11, i64 24
  %13 = getelementptr [1 x ptr], ptr %12, i64 0, i64 %.01556
  %14 = load ptr, ptr %13, align 8, !tbaa !17
  %15 = getelementptr i8, ptr %14, i64 8
  %.val.i = load ptr, ptr %15, align 8, !tbaa !19
  %.not.i19 = icmp eq ptr %.val.i, @PyTuple_Type
  br i1 %.not.i19, label %16, label %21

16:                                               ; preds = %10
  %17 = icmp eq ptr %.02655, null
  br i1 %17, label %18, label %dotjoinattr.exit

18:                                               ; preds = %16
  %19 = tail call ptr @PyUnicode_FromString(ptr noundef nonnull @.str.68) #7
  %20 = icmp eq ptr %19, null
  br i1 %20, label %Py_XDECREF.exit, label %dotjoinattr.exit

21:                                               ; preds = %10
  %22 = load i32, ptr %14, align 8, !tbaa !18
  %23 = icmp slt i32 %22, 0
  br i1 %23, label %Py_DECREF.exit.thread48, label %24

24:                                               ; preds = %21
  %25 = add nuw i32 %22, 1
  store i32 %25, ptr %14, align 8, !tbaa !18
  br label %Py_DECREF.exit.thread48

dotjoinattr.exit:                                 ; preds = %16, %18
  %.1 = phi ptr [ %19, %18 ], [ %.02655, %16 ]
  %26 = tail call ptr @PyUnicode_Join(ptr noundef nonnull %.1, ptr noundef nonnull %14) #7
  %.not = icmp eq ptr %26, null
  br i1 %.not, label %27, label %Py_DECREF.exit.thread48

27:                                               ; preds = %dotjoinattr.exit
  %28 = load i32, ptr %.1, align 8, !tbaa !18
  %.not.i.i = icmp sgt i32 %28, -1
  br i1 %.not.i.i, label %29, label %Py_XDECREF.exit

29:                                               ; preds = %27
  %30 = add nsw i32 %28, -1
  store i32 %30, ptr %.1, align 8, !tbaa !18
  %31 = icmp eq i32 %30, 0
  br i1 %31, label %32, label %Py_XDECREF.exit

32:                                               ; preds = %29
  tail call void @_Py_Dealloc(ptr noundef nonnull %.1) #7
  br label %Py_XDECREF.exit

Py_XDECREF.exit:                                  ; preds = %18, %27, %29, %32
  %33 = load i32, ptr %4, align 8, !tbaa !18
  %.not.i = icmp sgt i32 %33, -1
  br i1 %.not.i, label %34, label %Py_XDECREF.exit23

34:                                               ; preds = %Py_XDECREF.exit
  %35 = add nsw i32 %33, -1
  store i32 %35, ptr %4, align 8, !tbaa !18
  %36 = icmp eq i32 %35, 0
  br i1 %36, label %Py_XDECREF.exit23.sink.split, label %Py_XDECREF.exit23

Py_DECREF.exit.thread48:                          ; preds = %24, %21, %dotjoinattr.exit
  %.sink = phi ptr [ %26, %dotjoinattr.exit ], [ %14, %21 ], [ %14, %24 ]
  %.23152 = phi ptr [ %.1, %dotjoinattr.exit ], [ %.02655, %21 ], [ %.02655, %24 ]
  %37 = getelementptr [1 x ptr], ptr %9, i64 0, i64 %.01556
  store ptr %.sink, ptr %37, align 8, !tbaa !17
  %38 = add nuw nsw i64 %.01556, 1
  %39 = load i64, ptr %2, align 8, !tbaa !72
  %40 = icmp slt i64 %38, %39
  br i1 %40, label %10, label %._crit_edge, !llvm.loop !76

._crit_edge:                                      ; preds = %Py_DECREF.exit.thread48
  %.not.i21 = icmp eq ptr %.23152, null
  br i1 %.not.i21, label %Py_XDECREF.exit23, label %41

41:                                               ; preds = %._crit_edge
  %42 = load i32, ptr %.23152, align 8, !tbaa !18
  %.not.i.i22 = icmp sgt i32 %42, -1
  br i1 %.not.i.i22, label %43, label %Py_XDECREF.exit23

43:                                               ; preds = %41
  %44 = add nsw i32 %42, -1
  store i32 %44, ptr %.23152, align 8, !tbaa !18
  %45 = icmp eq i32 %44, 0
  br i1 %45, label %Py_XDECREF.exit23.sink.split, label %Py_XDECREF.exit23

Py_XDECREF.exit23.sink.split:                     ; preds = %43, %34
  %.sink60 = phi ptr [ %4, %34 ], [ %.23152, %43 ]
  %.0.ph = phi ptr [ null, %34 ], [ %4, %43 ]
  tail call void @_Py_Dealloc(ptr noundef nonnull %.sink60) #7
  br label %Py_XDECREF.exit23

Py_XDECREF.exit23:                                ; preds = %Py_XDECREF.exit23.sink.split, %.preheader, %34, %Py_XDECREF.exit, %43, %41, %._crit_edge, %1
  %.0 = phi ptr [ null, %1 ], [ %4, %._crit_edge ], [ %4, %41 ], [ %4, %43 ], [ null, %Py_XDECREF.exit ], [ null, %34 ], [ %4, %.preheader ], [ %.0.ph, %Py_XDECREF.exit23.sink.split ]
  ret ptr %.0
}